(lp0
F0.6116282209035678
aF-0.16308648188941713
aF1.9288506055143768
aF1.533127861652398
aF-0.24959572064510732
aF-0.04308968529545539
aF-1.380235136030999
aF0.36765725774086555
aF-1.3119506850495366
aF-0.7383627113395065
a.