(lp0
F-0.5720213810447274
aF0.9957192498438115
aF0.862431252773777
aF1.1069673291155284
aF0.4610130478549843
aF-0.3970374827891613
aF0.20218514729019887
aF-0.28723600528554727
aF-0.4214020248188063
aF-1.048326213789472
a.