(lp0
F-0.577399303720743
aF-1.1719945710483994
aF0.06210298866098578
aF0.3820579682404159
aF1.219738152105553
aF-0.36501481715581174
aF1.7173432564838231
aF0.37522783546578437
aF-1.4439519144309074
aF0.41243888635342846
a.